target datalayout = "e-m:e-p270:32:32-p271:32:32-p272:64:64-i64:64-i128:128-f80:128-n8:16:32:64-S128"
target triple = "x86_64-pc-linux-gnu"

%struct._zval_struct = type { %union._zend_value, %union.anon.9, %union.anon.12 }
%union._zend_value = type { i64 }
%union.anon.9 = type { i32 }
%union.anon.12 = type { i32 }
%struct._zend_refcounted_h = type { i32, %union.anon.0 }
%union.anon.0 = type { i32 }
%struct._dom_prop_handler = type { ptr, ptr }
%struct._dom_object = type { ptr, ptr, ptr, %struct._zend_object }
%struct._zend_object = type { %struct._zend_refcounted_h, i32, ptr, ptr, ptr, [1 x %struct._zval_struct] }

; Function Attrs: nounwind uwtable
define internal ptr @php_dom_obj_from_obj(ptr noundef %0) #0 {
  %2 = alloca ptr, align 8
  store ptr %0, ptr %2, align 8
  %3 = load ptr, ptr %2, align 8
  %4 = getelementptr inbounds i8, ptr %3, i64 -24
  ret ptr %4
}

; Function Attrs: nounwind uwtable
define internal i32 @dom_property_exists(ptr noundef %0, ptr noundef %1, i32 noundef %2, ptr noundef %3) #0 {
  %5 = alloca ptr, align 8
  %6 = alloca ptr, align 8
  %7 = alloca ptr, align 8
  %8 = alloca ptr, align 8
  %9 = alloca ptr, align 8
  %10 = alloca ptr, align 8
  %11 = alloca ptr, align 8
  %12 = alloca i32, align 4
  %13 = alloca ptr, align 8
  %14 = alloca ptr, align 8
  %15 = alloca ptr, align 8
  %16 = alloca i32, align 4
  %17 = alloca %struct._zval_struct, align 8
  store ptr %0, ptr %10, align 8
  store ptr %1, ptr %11, align 8
  store i32 %2, ptr %12, align 4
  store ptr %3, ptr %13, align 8
  %18 = load ptr, ptr %10, align 8
  %19 = call ptr @php_dom_obj_from_obj(ptr noundef %18)
  store ptr %19, ptr %14, align 8
  store ptr null, ptr %15, align 8
  store i32 0, ptr %16, align 4
  %20 = load ptr, ptr %14, align 8
  %21 = getelementptr inbounds %struct._dom_object, ptr %20, i32 0, i32 2
  %22 = load ptr, ptr %21, align 8
  %23 = icmp ne ptr %22, null
  br i1 %23, label %24, label %43

24:                                               ; preds = %4
  %25 = load ptr, ptr %14, align 8
  %26 = getelementptr inbounds %struct._dom_object, ptr %25, i32 0, i32 2
  %27 = load ptr, ptr %26, align 8
  %28 = load ptr, ptr %11, align 8
  store ptr %27, ptr %7, align 8
  store ptr %28, ptr %8, align 8
  %29 = load ptr, ptr %7, align 8
  %30 = load ptr, ptr %8, align 8
  %31 = call ptr @zend_hash_find(ptr noundef %29, ptr noundef %30) #12
  store ptr %31, ptr %9, align 8
  %32 = load ptr, ptr %9, align 8
  %33 = icmp ne ptr %32, null
  br i1 %33, label %34, label %40

34:                                               ; preds = %24
  %35 = load ptr, ptr %9, align 8
  %36 = load ptr, ptr %35, align 8
  %37 = icmp ne ptr %36, null
  call void @llvm.assume(i1 %37)
  %38 = load ptr, ptr %9, align 8
  %39 = load ptr, ptr %38, align 8
  store ptr %39, ptr %6, align 8
  br label %41

40:                                               ; preds = %24
  store ptr null, ptr %6, align 8
  br label %41

41:                                               ; preds = %40, %34
  %42 = load ptr, ptr %6, align 8
  store ptr %42, ptr %15, align 8
  br label %43

43:                                               ; preds = %41, %4
  %44 = load ptr, ptr %15, align 8
  %45 = icmp ne ptr %44, null
  br i1 %45, label %46, label %76

46:                                               ; preds = %43
  %47 = load i32, ptr %12, align 4
  %48 = icmp eq i32 %47, 2
  br i1 %48, label %49, label %50

49:                                               ; preds = %46
  store i32 1, ptr %16, align 4
  br label %75

50:                                               ; preds = %46
  %51 = load ptr, ptr %15, align 8
  %52 = getelementptr inbounds %struct._dom_prop_handler, ptr %51, i32 0, i32 0
  %53 = load ptr, ptr %52, align 8
  %54 = load ptr, ptr %14, align 8
  %55 = call i32 %53(ptr noundef %54, ptr noundef %17)
  %56 = icmp eq i32 %55, 0
  br i1 %56, label %57, label %74

57:                                               ; preds = %50
  %58 = load i32, ptr %12, align 4
  %59 = icmp eq i32 %58, 1
  br i1 %59, label %60, label %62

60:                                               ; preds = %57
  %61 = call i32 @zend_is_true(ptr noundef %17)
  store i32 %61, ptr %16, align 4
  br label %73

62:                                               ; preds = %57
  %63 = load i32, ptr %12, align 4
  %64 = icmp eq i32 %63, 0
  br i1 %64, label %65, label %72

65:                                               ; preds = %62
  store ptr %17, ptr %5, align 8
  %66 = load ptr, ptr %5, align 8
  %67 = getelementptr inbounds %struct._zval_struct, ptr %66, i32 0, i32 1
  %68 = load i8, ptr %67, align 8
  %69 = zext i8 %68 to i32
  %70 = icmp ne i32 %69, 1
  %71 = zext i1 %70 to i32
  store i32 %71, ptr %16, align 4
  br label %72

72:                                               ; preds = %65, %62
  br label %73

73:                                               ; preds = %72, %60
  call void @zval_ptr_dtor(ptr noundef %17)
  br label %74

74:                                               ; preds = %73, %50
  br label %75

75:                                               ; preds = %74, %49
  br label %82

76:                                               ; preds = %43
  %77 = load ptr, ptr %10, align 8
  %78 = load ptr, ptr %11, align 8
  %79 = load i32, ptr %12, align 4
  %80 = load ptr, ptr %13, align 8
  %81 = call i32 @zend_std_has_property(ptr noundef %77, ptr noundef %78, i32 noundef %79, ptr noundef %80)
  store i32 %81, ptr %16, align 4
  br label %82

82:                                               ; preds = %76, %75
  %83 = load i32, ptr %16, align 4
  ret i32 %83
}