; Function Attrs: nounwind uwtable
define internal i32 @dom_property_exists(ptr noundef %0, ptr noundef %1, i32 noundef %2, ptr noundef %3) #1 {
  %5 = alloca %struct._zval_struct, align 8
  %6 = getelementptr inbounds i8, ptr %0, i64 -24
  %7 = getelementptr inbounds i8, ptr %0, i64 -8
  %8 = load ptr, ptr %7, align 8
  %.not = icmp eq ptr %8, null
  br i1 %.not, label %27, label %9

9:                                                ; preds = %4
  %10 = tail call ptr @zend_hash_find(ptr noundef nonnull %8, ptr noundef %1) #16
  %.not26 = icmp eq ptr %10, null
  br i1 %.not26, label %27, label %11

11:                                               ; preds = %9
  %12 = icmp eq i32 %2, 2
  br i1 %12, label %29, label %13

13:                                               ; preds = %11
  %14 = load ptr, ptr %10, align 8, !nonnull !4, !noundef !4
  %15 = load ptr, ptr %14, align 8
  %16 = call i32 %15(ptr noundef nonnull %6, ptr noundef nonnull %5) #16
  %17 = icmp eq i32 %16, 0
  br i1 %17, label %18, label %29

18:                                               ; preds = %13
  switch i32 %2, label %26 [
    i32 1, label %19
    i32 0, label %21
  ]

19:                                               ; preds = %18
  %20 = call i32 @zend_is_true(ptr noundef nonnull %5) #16
  br label %26

21:                                               ; preds = %18
  %22 = getelementptr inbounds i8, ptr %5, i64 8
  %23 = load i8, ptr %22, align 8
  %24 = icmp ne i8 %23, 1
  %25 = zext i1 %24 to i32
  br label %26

26:                                               ; preds = %18, %21, %19
  %.0 = phi i32 [ %20, %19 ], [ %25, %21 ], [ 0, %18 ]
  call void @zval_ptr_dtor(ptr noundef nonnull %5) #16
  br label %29

27:                                               ; preds = %4, %9
  %28 = tail call i32 @zend_std_has_property(ptr noundef nonnull %0, ptr noundef %1, i32 noundef %2, ptr noundef %3) #16
  br label %29

29:                                               ; preds = %11, %26, %13, %27
  %.1 = phi i32 [ %.0, %26 ], [ 0, %13 ], [ %28, %27 ], [ 1, %11 ]
  ret i32 %.1
}